
out/out.elf:     file format elf32-avr

Sections:
Idx Name          Size      VMA       LMA       File off  Algn
  0 .data         00000022  00800100  00000774  00000808  2**0
                  CONTENTS, ALLOC, LOAD, DATA
  1 .text         00000774  00000000  00000000  00000094  2**1
                  CONTENTS, ALLOC, LOAD, READONLY, CODE
  2 .bss          00000091  00800122  00800122  0000082a  2**0
                  ALLOC
  3 .comment      00000030  00000000  00000000  0000082a  2**0
                  CONTENTS, READONLY
  4 .note.gnu.avr.deviceinfo 00000040  00000000  00000000  0000085c  2**2
                  CONTENTS, READONLY
  5 .debug_info   000009f4  00000000  00000000  0000089c  2**0
                  CONTENTS, READONLY, DEBUGGING
  6 .debug_abbrev 0000096a  00000000  00000000  00001290  2**0
                  CONTENTS, READONLY, DEBUGGING
  7 .debug_line   0000001a  00000000  00000000  00001bfa  2**0
                  CONTENTS, READONLY, DEBUGGING
  8 .debug_str    00000371  00000000  00000000  00001c14  2**0
                  CONTENTS, READONLY, DEBUGGING

Disassembly of section .text:

00000000 <__vectors>:
   0:	55 c0       	rjmp	.+170    	; 0xac <__ctors_end>
   2:	00 00       	nop
   4:	6e c0       	rjmp	.+220    	; 0xe2 <__bad_interrupt>
   6:	00 00       	nop
   8:	6c c0       	rjmp	.+216    	; 0xe2 <__bad_interrupt>
   a:	00 00       	nop
   c:	6a c0       	rjmp	.+212    	; 0xe2 <__bad_interrupt>
   e:	00 00       	nop
  10:	68 c0       	rjmp	.+208    	; 0xe2 <__bad_interrupt>
  12:	00 00       	nop
  14:	66 c0       	rjmp	.+204    	; 0xe2 <__bad_interrupt>
  16:	00 00       	nop
  18:	64 c0       	rjmp	.+200    	; 0xe2 <__bad_interrupt>
  1a:	00 00       	nop
  1c:	62 c0       	rjmp	.+196    	; 0xe2 <__bad_interrupt>
  1e:	00 00       	nop
  20:	60 c0       	rjmp	.+192    	; 0xe2 <__bad_interrupt>
  22:	00 00       	nop
  24:	5e c0       	rjmp	.+188    	; 0xe2 <__bad_interrupt>
  26:	00 00       	nop
  28:	5c c0       	rjmp	.+184    	; 0xe2 <__bad_interrupt>
  2a:	00 00       	nop
  2c:	5a c0       	rjmp	.+180    	; 0xe2 <__bad_interrupt>
  2e:	00 00       	nop
  30:	58 c0       	rjmp	.+176    	; 0xe2 <__bad_interrupt>
  32:	00 00       	nop
  34:	56 c0       	rjmp	.+172    	; 0xe2 <__bad_interrupt>
  36:	00 00       	nop
  38:	54 c0       	rjmp	.+168    	; 0xe2 <__bad_interrupt>
  3a:	00 00       	nop
  3c:	52 c0       	rjmp	.+164    	; 0xe2 <__bad_interrupt>
  3e:	00 00       	nop
  40:	50 c0       	rjmp	.+160    	; 0xe2 <__bad_interrupt>
  42:	00 00       	nop
  44:	4e c0       	rjmp	.+156    	; 0xe2 <__bad_interrupt>
  46:	00 00       	nop
  48:	4c c0       	rjmp	.+152    	; 0xe2 <__bad_interrupt>
  4a:	00 00       	nop
  4c:	4a c0       	rjmp	.+148    	; 0xe2 <__bad_interrupt>
  4e:	00 00       	nop
  50:	44 c1       	rjmp	.+648    	; 0x2da <__vector_20>
  52:	00 00       	nop
  54:	46 c0       	rjmp	.+140    	; 0xe2 <__bad_interrupt>
  56:	00 00       	nop
  58:	44 c0       	rjmp	.+136    	; 0xe2 <__bad_interrupt>
  5a:	00 00       	nop
  5c:	42 c0       	rjmp	.+132    	; 0xe2 <__bad_interrupt>
  5e:	00 00       	nop
  60:	40 c0       	rjmp	.+128    	; 0xe2 <__bad_interrupt>
  62:	00 00       	nop
  64:	f0 c1       	rjmp	.+992    	; 0x446 <__vector_25>
  66:	00 00       	nop
  68:	3c c0       	rjmp	.+120    	; 0xe2 <__bad_interrupt>
  6a:	00 00       	nop
  6c:	6b c1       	rjmp	.+726    	; 0x344 <__vector_27>
  6e:	00 00       	nop
  70:	38 c0       	rjmp	.+112    	; 0xe2 <__bad_interrupt>
  72:	00 00       	nop
  74:	36 c0       	rjmp	.+108    	; 0xe2 <__bad_interrupt>
  76:	00 00       	nop
  78:	34 c0       	rjmp	.+104    	; 0xe2 <__bad_interrupt>
  7a:	00 00       	nop
  7c:	32 c0       	rjmp	.+100    	; 0xe2 <__bad_interrupt>
  7e:	00 00       	nop
  80:	30 c0       	rjmp	.+96     	; 0xe2 <__bad_interrupt>
  82:	00 00       	nop
  84:	2e c0       	rjmp	.+92     	; 0xe2 <__bad_interrupt>
  86:	00 00       	nop
  88:	2c c0       	rjmp	.+88     	; 0xe2 <__bad_interrupt>
  8a:	00 00       	nop
  8c:	2a c0       	rjmp	.+84     	; 0xe2 <__bad_interrupt>
  8e:	00 00       	nop
  90:	28 c0       	rjmp	.+80     	; 0xe2 <__bad_interrupt>
  92:	00 00       	nop
  94:	26 c0       	rjmp	.+76     	; 0xe2 <__bad_interrupt>
  96:	00 00       	nop
  98:	24 c0       	rjmp	.+72     	; 0xe2 <__bad_interrupt>
  9a:	00 00       	nop
  9c:	22 c0       	rjmp	.+68     	; 0xe2 <__bad_interrupt>
  9e:	00 00       	nop
  a0:	20 c0       	rjmp	.+64     	; 0xe2 <__bad_interrupt>
  a2:	00 00       	nop
  a4:	1e c0       	rjmp	.+60     	; 0xe2 <__bad_interrupt>
  a6:	00 00       	nop
  a8:	1c c0       	rjmp	.+56     	; 0xe2 <__bad_interrupt>
	...

000000ac <__ctors_end>:
  ac:	11 24       	eor	r1, r1
  ae:	1f be       	out	0x3f, r1	; 63
  b0:	cf ef       	ldi	r28, 0xFF	; 255
  b2:	da e0       	ldi	r29, 0x0A	; 10
  b4:	de bf       	out	0x3e, r29	; 62
  b6:	cd bf       	out	0x3d, r28	; 61

000000b8 <__do_copy_data>:
  b8:	11 e0       	ldi	r17, 0x01	; 1
  ba:	a0 e0       	ldi	r26, 0x00	; 0
  bc:	b1 e0       	ldi	r27, 0x01	; 1
  be:	e4 e7       	ldi	r30, 0x74	; 116
  c0:	f7 e0       	ldi	r31, 0x07	; 7
  c2:	02 c0       	rjmp	.+4      	; 0xc8 <__do_copy_data+0x10>
  c4:	05 90       	lpm	r0, Z+
  c6:	0d 92       	st	X+, r0
  c8:	a2 32       	cpi	r26, 0x22	; 34
  ca:	b1 07       	cpc	r27, r17
  cc:	d9 f7       	brne	.-10     	; 0xc4 <__do_copy_data+0xc>

000000ce <__do_clear_bss>:
  ce:	21 e0       	ldi	r18, 0x01	; 1
  d0:	a2 e2       	ldi	r26, 0x22	; 34
  d2:	b1 e0       	ldi	r27, 0x01	; 1
  d4:	01 c0       	rjmp	.+2      	; 0xd8 <.do_clear_bss_start>

000000d6 <.do_clear_bss_loop>:
  d6:	1d 92       	st	X+, r1

000000d8 <.do_clear_bss_start>:
  d8:	a3 3b       	cpi	r26, 0xB3	; 179
  da:	b2 07       	cpc	r27, r18
  dc:	e1 f7       	brne	.-8      	; 0xd6 <.do_clear_bss_loop>
  de:	07 d0       	rcall	.+14     	; 0xee <main>
  e0:	47 c3       	rjmp	.+1678   	; 0x770 <_exit>

000000e2 <__bad_interrupt>:
  e2:	8e cf       	rjmp	.-228    	; 0x0 <__vectors>

000000e4 <Initialization>:
  e4:	dc d0       	rcall	.+440    	; 0x29e <Timer1Init>
  e6:	18 d1       	rcall	.+560    	; 0x318 <UartInit>
  e8:	08 d0       	rcall	.+16     	; 0xfa <motorsInit>
  ea:	78 94       	sei
  ec:	08 95       	ret

000000ee <main>:
  ee:	55 9a       	sbi	0x0a, 5	; 10
  f0:	20 9a       	sbi	0x04, 0	; 4
  f2:	f8 df       	rcall	.-16     	; 0xe4 <Initialization>
  f4:	4d d0       	rcall	.+154    	; 0x190 <OsInit>
  f6:	89 d0       	rcall	.+274    	; 0x20a <OsStart>
  f8:	ff cf       	rjmp	.-2      	; 0xf8 <main+0xa>

000000fa <motorsInit>:
  fa:	84 b1       	in	r24, 0x04	; 4
  fc:	86 66       	ori	r24, 0x66	; 102
  fe:	84 b9       	out	0x04, r24	; 4
 100:	85 b1       	in	r24, 0x05	; 5
 102:	86 60       	ori	r24, 0x06	; 6
 104:	85 b9       	out	0x05, r24	; 5
 106:	08 95       	ret

00000108 <SetSpeed>:
 108:	84 36       	cpi	r24, 0x64	; 100
 10a:	91 05       	cpc	r25, r1
 10c:	10 f4       	brcc	.+4      	; 0x112 <SetSpeed+0xa>
 10e:	2a 9a       	sbi	0x05, 2	; 5
 110:	01 c0       	rjmp	.+2      	; 0x114 <SetSpeed+0xc>
 112:	2a 98       	cbi	0x05, 2	; 5
 114:	64 36       	cpi	r22, 0x64	; 100
 116:	71 05       	cpc	r23, r1
 118:	10 f4       	brcc	.+4      	; 0x11e <SetSpeed+0x16>
 11a:	29 98       	cbi	0x05, 1	; 5
 11c:	01 c0       	rjmp	.+2      	; 0x120 <SetSpeed+0x18>
 11e:	29 9a       	sbi	0x05, 1	; 5
 120:	9c 01       	movw	r18, r24
 122:	99 23       	and	r25, r25
 124:	24 f4       	brge	.+8      	; 0x12e <SetSpeed+0x26>
 126:	22 27       	eor	r18, r18
 128:	33 27       	eor	r19, r19
 12a:	28 1b       	sub	r18, r24
 12c:	39 0b       	sbc	r19, r25
 12e:	4c ee       	ldi	r20, 0xEC	; 236
 130:	42 03       	mulsu	r20, r18
 132:	c0 01       	movw	r24, r0
 134:	43 9f       	mul	r20, r19
 136:	90 0d       	add	r25, r0
 138:	11 24       	eor	r1, r1
 13a:	81 53       	subi	r24, 0x31	; 49
 13c:	98 4f       	sbci	r25, 0xF8	; 248
 13e:	9c 01       	movw	r18, r24
 140:	2b 50       	subi	r18, 0x0B	; 11
 142:	31 09       	sbc	r19, r1
 144:	25 3c       	cpi	r18, 0xC5	; 197
 146:	37 40       	sbci	r19, 0x07	; 7
 148:	e8 f4       	brcc	.+58     	; 0x184 <SetSpeed+0x7c>
 14a:	ab 01       	movw	r20, r22
 14c:	77 23       	and	r23, r23
 14e:	24 f4       	brge	.+8      	; 0x158 <SetSpeed+0x50>
 150:	44 27       	eor	r20, r20
 152:	55 27       	eor	r21, r21
 154:	46 1b       	sub	r20, r22
 156:	57 0b       	sbc	r21, r23
 158:	6c ee       	ldi	r22, 0xEC	; 236
 15a:	64 03       	mulsu	r22, r20
 15c:	90 01       	movw	r18, r0
 15e:	65 9f       	mul	r22, r21
 160:	30 0d       	add	r19, r0
 162:	11 24       	eor	r1, r1
 164:	21 53       	subi	r18, 0x31	; 49
 166:	38 4f       	sbci	r19, 0xF8	; 248
 168:	a9 01       	movw	r20, r18
 16a:	4b 50       	subi	r20, 0x0B	; 11
 16c:	51 09       	sbc	r21, r1
 16e:	45 3c       	cpi	r20, 0xC5	; 197
 170:	57 40       	sbci	r21, 0x07	; 7
 172:	40 f4       	brcc	.+16     	; 0x184 <SetSpeed+0x7c>
 174:	90 93 03 01 	sts	0x0103, r25	; 0x800103 <PWM1+0x1>
 178:	80 93 02 01 	sts	0x0102, r24	; 0x800102 <PWM1>
 17c:	30 93 01 01 	sts	0x0101, r19	; 0x800101 <PWM2+0x1>
 180:	20 93 00 01 	sts	0x0100, r18	; 0x800100 <PWM2>
 184:	08 95       	ret

00000186 <Task10ms>:
 186:	08 95       	ret

00000188 <Task100ms>:
 188:	08 95       	ret

0000018a <Task1000ms>:
 18a:	08 95       	ret

0000018c <Task1ms>:
 18c:	13 c1       	rjmp	.+550    	; 0x3b4 <uartTxHandler>
 18e:	08 95       	ret

00000190 <OsInit>:
 190:	eb e8       	ldi	r30, 0x8B	; 139
 192:	f1 e0       	ldi	r31, 0x01	; 1
 194:	86 ec       	ldi	r24, 0xC6	; 198
 196:	90 e0       	ldi	r25, 0x00	; 0
 198:	91 83       	std	Z+1, r25	; 0x01
 19a:	80 83       	st	Z, r24
 19c:	8f e0       	ldi	r24, 0x0F	; 15
 19e:	90 e0       	ldi	r25, 0x00	; 0
 1a0:	93 83       	std	Z+3, r25	; 0x03
 1a2:	82 83       	std	Z+2, r24	; 0x02
 1a4:	17 82       	std	Z+7, r1	; 0x07
 1a6:	16 82       	std	Z+6, r1	; 0x06
 1a8:	15 82       	std	Z+5, r1	; 0x05
 1aa:	14 82       	std	Z+4, r1	; 0x04
 1ac:	10 86       	std	Z+8, r1	; 0x08
 1ae:	83 ec       	ldi	r24, 0xC3	; 195
 1b0:	90 e0       	ldi	r25, 0x00	; 0
 1b2:	92 87       	std	Z+10, r25	; 0x0a
 1b4:	81 87       	std	Z+9, r24	; 0x09
 1b6:	8c e9       	ldi	r24, 0x9C	; 156
 1b8:	90 e0       	ldi	r25, 0x00	; 0
 1ba:	94 87       	std	Z+12, r25	; 0x0c
 1bc:	83 87       	std	Z+11, r24	; 0x0b
 1be:	83 e1       	ldi	r24, 0x13	; 19
 1c0:	90 e0       	ldi	r25, 0x00	; 0
 1c2:	90 8b       	std	Z+16, r25	; 0x10
 1c4:	87 87       	std	Z+15, r24	; 0x0f
 1c6:	16 86       	std	Z+14, r1	; 0x0e
 1c8:	15 86       	std	Z+13, r1	; 0x0d
 1ca:	11 8a       	std	Z+17, r1	; 0x11
 1cc:	84 ec       	ldi	r24, 0xC4	; 196
 1ce:	90 e0       	ldi	r25, 0x00	; 0
 1d0:	93 8b       	std	Z+19, r25	; 0x13
 1d2:	82 8b       	std	Z+18, r24	; 0x12
 1d4:	8a e1       	ldi	r24, 0x1A	; 26
 1d6:	96 e0       	ldi	r25, 0x06	; 6
 1d8:	95 8b       	std	Z+21, r25	; 0x15
 1da:	84 8b       	std	Z+20, r24	; 0x14
 1dc:	85 e2       	ldi	r24, 0x25	; 37
 1de:	90 e0       	ldi	r25, 0x00	; 0
 1e0:	91 8f       	std	Z+25, r25	; 0x19
 1e2:	80 8f       	std	Z+24, r24	; 0x18
 1e4:	17 8a       	std	Z+23, r1	; 0x17
 1e6:	16 8a       	std	Z+22, r1	; 0x16
 1e8:	12 8e       	std	Z+26, r1	; 0x1a
 1ea:	85 ec       	ldi	r24, 0xC5	; 197
 1ec:	90 e0       	ldi	r25, 0x00	; 0
 1ee:	94 8f       	std	Z+28, r25	; 0x1c
 1f0:	83 8f       	std	Z+27, r24	; 0x1b
 1f2:	88 e0       	ldi	r24, 0x08	; 8
 1f4:	9d e3       	ldi	r25, 0x3D	; 61
 1f6:	96 8f       	std	Z+30, r25	; 0x1e
 1f8:	85 8f       	std	Z+29, r24	; 0x1d
 1fa:	88 e3       	ldi	r24, 0x38	; 56
 1fc:	90 e0       	ldi	r25, 0x00	; 0
 1fe:	92 a3       	std	Z+34, r25	; 0x22
 200:	81 a3       	std	Z+33, r24	; 0x21
 202:	10 a2       	std	Z+32, r1	; 0x20
 204:	17 8e       	std	Z+31, r1	; 0x1f
 206:	13 a2       	std	Z+35, r1	; 0x23
 208:	08 95       	ret

0000020a <OsStart>:
 20a:	a0 e0       	ldi	r26, 0x00	; 0
 20c:	b0 e0       	ldi	r27, 0x00	; 0
 20e:	ea e0       	ldi	r30, 0x0A	; 10
 210:	f1 e0       	ldi	r31, 0x01	; 1
 212:	60 c2       	rjmp	.+1216   	; 0x6d4 <__prologue_saves__+0x16>
 214:	38 d0       	rcall	.+112    	; 0x286 <Timer3Init>
 216:	78 94       	sei
 218:	0f 2e       	mov	r0, r31
 21a:	ff ea       	ldi	r31, 0xAF	; 175
 21c:	ef 2e       	mov	r14, r31
 21e:	f1 e0       	ldi	r31, 0x01	; 1
 220:	ff 2e       	mov	r15, r31
 222:	f0 2d       	mov	r31, r0
 224:	04 e9       	ldi	r16, 0x94	; 148
 226:	10 e0       	ldi	r17, 0x00	; 0
 228:	dd 24       	eor	r13, r13
 22a:	d3 94       	inc	r13
 22c:	cb e8       	ldi	r28, 0x8B	; 139
 22e:	d1 e0       	ldi	r29, 0x01	; 1
 230:	88 85       	ldd	r24, Y+8	; 0x08
 232:	81 11       	cpse	r24, r1
 234:	0f c0       	rjmp	.+30     	; 0x254 <OsStart+0x4a>
 236:	d8 01       	movw	r26, r16
 238:	8d 91       	ld	r24, X+
 23a:	9c 91       	ld	r25, X
 23c:	11 97       	sbiw	r26, 0x01	; 1
 23e:	2e 81       	ldd	r18, Y+6	; 0x06
 240:	3f 81       	ldd	r19, Y+7	; 0x07
 242:	82 17       	cp	r24, r18
 244:	93 07       	cpc	r25, r19
 246:	d0 f0       	brcs	.+52     	; 0x27c <OsStart+0x72>
 248:	8d 91       	ld	r24, X+
 24a:	9c 91       	ld	r25, X
 24c:	9d 83       	std	Y+5, r25	; 0x05
 24e:	8c 83       	std	Y+4, r24	; 0x04
 250:	d8 86       	std	Y+8, r13	; 0x08
 252:	14 c0       	rjmp	.+40     	; 0x27c <OsStart+0x72>
 254:	d8 01       	movw	r26, r16
 256:	8d 91       	ld	r24, X+
 258:	9c 91       	ld	r25, X
 25a:	11 97       	sbiw	r26, 0x01	; 1
 25c:	2c 81       	ldd	r18, Y+4	; 0x04
 25e:	3d 81       	ldd	r19, Y+5	; 0x05
 260:	82 1b       	sub	r24, r18
 262:	93 0b       	sbc	r25, r19
 264:	2a 81       	ldd	r18, Y+2	; 0x02
 266:	3b 81       	ldd	r19, Y+3	; 0x03
 268:	82 17       	cp	r24, r18
 26a:	93 07       	cpc	r25, r19
 26c:	38 f0       	brcs	.+14     	; 0x27c <OsStart+0x72>
 26e:	8d 91       	ld	r24, X+
 270:	9c 91       	ld	r25, X
 272:	9d 83       	std	Y+5, r25	; 0x05
 274:	8c 83       	std	Y+4, r24	; 0x04
 276:	e8 81       	ld	r30, Y
 278:	f9 81       	ldd	r31, Y+1	; 0x01
 27a:	09 95       	icall
 27c:	29 96       	adiw	r28, 0x09	; 9
 27e:	ce 15       	cp	r28, r14
 280:	df 05       	cpc	r29, r15
 282:	b1 f6       	brne	.-84     	; 0x230 <OsStart+0x26>
 284:	d3 cf       	rjmp	.-90     	; 0x22c <OsStart+0x22>

00000286 <Timer3Init>:
 286:	10 92 95 00 	sts	0x0095, r1	; 0x800095 <__TEXT_REGION_LENGTH__+0x7e0095>
 28a:	10 92 94 00 	sts	0x0094, r1	; 0x800094 <__TEXT_REGION_LENGTH__+0x7e0094>
 28e:	10 92 90 00 	sts	0x0090, r1	; 0x800090 <__TEXT_REGION_LENGTH__+0x7e0090>
 292:	85 e0       	ldi	r24, 0x05	; 5
 294:	80 93 91 00 	sts	0x0091, r24	; 0x800091 <__TEXT_REGION_LENGTH__+0x7e0091>
 298:	10 92 92 00 	sts	0x0092, r1	; 0x800092 <__TEXT_REGION_LENGTH__+0x7e0092>
 29c:	08 95       	ret

0000029e <Timer1Init>:
 29e:	80 ed       	ldi	r24, 0xD0	; 208
 2a0:	97 e0       	ldi	r25, 0x07	; 7
 2a2:	90 93 87 00 	sts	0x0087, r25	; 0x800087 <__TEXT_REGION_LENGTH__+0x7e0087>
 2a6:	80 93 86 00 	sts	0x0086, r24	; 0x800086 <__TEXT_REGION_LENGTH__+0x7e0086>
 2aa:	8f ec       	ldi	r24, 0xCF	; 207
 2ac:	97 e0       	ldi	r25, 0x07	; 7
 2ae:	90 93 89 00 	sts	0x0089, r25	; 0x800089 <__TEXT_REGION_LENGTH__+0x7e0089>
 2b2:	80 93 88 00 	sts	0x0088, r24	; 0x800088 <__TEXT_REGION_LENGTH__+0x7e0088>
 2b6:	90 93 8b 00 	sts	0x008B, r25	; 0x80008b <__TEXT_REGION_LENGTH__+0x7e008b>
 2ba:	80 93 8a 00 	sts	0x008A, r24	; 0x80008a <__TEXT_REGION_LENGTH__+0x7e008a>
 2be:	ef e6       	ldi	r30, 0x6F	; 111
 2c0:	f0 e0       	ldi	r31, 0x00	; 0
 2c2:	80 81       	ld	r24, Z
 2c4:	81 60       	ori	r24, 0x01	; 1
 2c6:	80 83       	st	Z, r24
 2c8:	80 ef       	ldi	r24, 0xF0	; 240
 2ca:	80 93 80 00 	sts	0x0080, r24	; 0x800080 <__TEXT_REGION_LENGTH__+0x7e0080>
 2ce:	81 e1       	ldi	r24, 0x11	; 17
 2d0:	80 93 81 00 	sts	0x0081, r24	; 0x800081 <__TEXT_REGION_LENGTH__+0x7e0081>
 2d4:	10 92 82 00 	sts	0x0082, r1	; 0x800082 <__TEXT_REGION_LENGTH__+0x7e0082>
 2d8:	08 95       	ret

000002da <__vector_20>:
 2da:	1f 92       	push	r1
 2dc:	0f 92       	push	r0
 2de:	0f b6       	in	r0, 0x3f	; 63
 2e0:	0f 92       	push	r0
 2e2:	11 24       	eor	r1, r1
 2e4:	8f 93       	push	r24
 2e6:	9f 93       	push	r25
 2e8:	80 91 02 01 	lds	r24, 0x0102	; 0x800102 <PWM1>
 2ec:	90 91 03 01 	lds	r25, 0x0103	; 0x800103 <PWM1+0x1>
 2f0:	90 93 8b 00 	sts	0x008B, r25	; 0x80008b <__TEXT_REGION_LENGTH__+0x7e008b>
 2f4:	80 93 8a 00 	sts	0x008A, r24	; 0x80008a <__TEXT_REGION_LENGTH__+0x7e008a>
 2f8:	80 91 00 01 	lds	r24, 0x0100	; 0x800100 <PWM2>
 2fc:	90 91 01 01 	lds	r25, 0x0101	; 0x800101 <PWM2+0x1>
 300:	90 93 89 00 	sts	0x0089, r25	; 0x800089 <__TEXT_REGION_LENGTH__+0x7e0089>
 304:	80 93 88 00 	sts	0x0088, r24	; 0x800088 <__TEXT_REGION_LENGTH__+0x7e0088>
 308:	5d 98       	cbi	0x0b, 5	; 11
 30a:	9f 91       	pop	r25
 30c:	8f 91       	pop	r24
 30e:	0f 90       	pop	r0
 310:	0f be       	out	0x3f, r0	; 63
 312:	0f 90       	pop	r0
 314:	1f 90       	pop	r1
 316:	18 95       	reti

00000318 <UartInit>:
 318:	ec ec       	ldi	r30, 0xCC	; 204
 31a:	f0 e0       	ldi	r31, 0x00	; 0
 31c:	11 82       	std	Z+1, r1	; 0x01
 31e:	10 82       	st	Z, r1
 320:	a9 ec       	ldi	r26, 0xC9	; 201
 322:	b0 e0       	ldi	r27, 0x00	; 0
 324:	8c 91       	ld	r24, X
 326:	88 6d       	ori	r24, 0xD8	; 216
 328:	8c 93       	st	X, r24
 32a:	10 92 cd 00 	sts	0x00CD, r1	; 0x8000cd <__TEXT_REGION_LENGTH__+0x7e00cd>
 32e:	87 e6       	ldi	r24, 0x67	; 103
 330:	80 83       	st	Z, r24
 332:	08 95       	ret

00000334 <uartReceive>:
 334:	e8 ec       	ldi	r30, 0xC8	; 200
 336:	f0 e0       	ldi	r31, 0x00	; 0
 338:	80 81       	ld	r24, Z
 33a:	88 23       	and	r24, r24
 33c:	ec f7       	brge	.-6      	; 0x338 <uartReceive+0x4>
 33e:	80 91 ce 00 	lds	r24, 0x00CE	; 0x8000ce <__TEXT_REGION_LENGTH__+0x7e00ce>
 342:	08 95       	ret

00000344 <__vector_27>:
 344:	1f 92       	push	r1
 346:	0f 92       	push	r0
 348:	0f b6       	in	r0, 0x3f	; 63
 34a:	0f 92       	push	r0
 34c:	11 24       	eor	r1, r1
 34e:	2f 93       	push	r18
 350:	3f 93       	push	r19
 352:	4f 93       	push	r20
 354:	5f 93       	push	r21
 356:	6f 93       	push	r22
 358:	7f 93       	push	r23
 35a:	8f 93       	push	r24
 35c:	9f 93       	push	r25
 35e:	af 93       	push	r26
 360:	bf 93       	push	r27
 362:	ef 93       	push	r30
 364:	ff 93       	push	r31
 366:	cf 93       	push	r28
 368:	df 93       	push	r29
 36a:	1f 92       	push	r1
 36c:	cd b7       	in	r28, 0x3d	; 61
 36e:	de b7       	in	r29, 0x3e	; 62
 370:	be 01       	movw	r22, r28
 372:	6f 5f       	subi	r22, 0xFF	; 255
 374:	7f 4f       	sbci	r23, 0xFF	; 255
 376:	85 e2       	ldi	r24, 0x25	; 37
 378:	91 e0       	ldi	r25, 0x01	; 1
 37a:	e9 d0       	rcall	.+466    	; 0x54e <QueuePop>
 37c:	81 30       	cpi	r24, 0x01	; 1
 37e:	21 f4       	brne	.+8      	; 0x388 <__vector_27+0x44>
 380:	89 81       	ldd	r24, Y+1	; 0x01
 382:	80 93 ce 00 	sts	0x00CE, r24	; 0x8000ce <__TEXT_REGION_LENGTH__+0x7e00ce>
 386:	02 c0       	rjmp	.+4      	; 0x38c <__vector_27+0x48>
 388:	10 92 23 01 	sts	0x0123, r1	; 0x800123 <comTrigger>
 38c:	0f 90       	pop	r0
 38e:	df 91       	pop	r29
 390:	cf 91       	pop	r28
 392:	ff 91       	pop	r31
 394:	ef 91       	pop	r30
 396:	bf 91       	pop	r27
 398:	af 91       	pop	r26
 39a:	9f 91       	pop	r25
 39c:	8f 91       	pop	r24
 39e:	7f 91       	pop	r23
 3a0:	6f 91       	pop	r22
 3a2:	5f 91       	pop	r21
 3a4:	4f 91       	pop	r20
 3a6:	3f 91       	pop	r19
 3a8:	2f 91       	pop	r18
 3aa:	0f 90       	pop	r0
 3ac:	0f be       	out	0x3f, r0	; 63
 3ae:	0f 90       	pop	r0
 3b0:	1f 90       	pop	r1
 3b2:	18 95       	reti

000003b4 <uartTxHandler>:
 3b4:	a1 e0       	ldi	r26, 0x01	; 1
 3b6:	b0 e0       	ldi	r27, 0x00	; 0
 3b8:	ef ed       	ldi	r30, 0xDF	; 223
 3ba:	f1 e0       	ldi	r31, 0x01	; 1
 3bc:	90 c1       	rjmp	.+800    	; 0x6de <__prologue_saves__+0x20>
 3be:	80 91 23 01 	lds	r24, 0x0123	; 0x800123 <comTrigger>
 3c2:	81 11       	cpse	r24, r1
 3c4:	0d c0       	rjmp	.+26     	; 0x3e0 <uartTxHandler+0x2c>
 3c6:	be 01       	movw	r22, r28
 3c8:	6f 5f       	subi	r22, 0xFF	; 255
 3ca:	7f 4f       	sbci	r23, 0xFF	; 255
 3cc:	85 e2       	ldi	r24, 0x25	; 37
 3ce:	91 e0       	ldi	r25, 0x01	; 1
 3d0:	be d0       	rcall	.+380    	; 0x54e <QueuePop>
 3d2:	81 30       	cpi	r24, 0x01	; 1
 3d4:	29 f4       	brne	.+10     	; 0x3e0 <uartTxHandler+0x2c>
 3d6:	80 93 23 01 	sts	0x0123, r24	; 0x800123 <comTrigger>
 3da:	89 81       	ldd	r24, Y+1	; 0x01
 3dc:	80 93 ce 00 	sts	0x00CE, r24	; 0x8000ce <__TEXT_REGION_LENGTH__+0x7e00ce>
 3e0:	21 96       	adiw	r28, 0x01	; 1
 3e2:	e2 e0       	ldi	r30, 0x02	; 2
 3e4:	98 c1       	rjmp	.+816    	; 0x716 <__epilogue_restores__+0x20>

000003e6 <uartSendMsg>:
 3e6:	cf 93       	push	r28
 3e8:	df 93       	push	r29
 3ea:	fc 01       	movw	r30, r24
 3ec:	60 81       	ld	r22, Z
 3ee:	66 23       	and	r22, r22
 3f0:	41 f0       	breq	.+16     	; 0x402 <__LOCK_REGION_LENGTH__+0x2>
 3f2:	ec 01       	movw	r28, r24
 3f4:	21 96       	adiw	r28, 0x01	; 1
 3f6:	85 e2       	ldi	r24, 0x25	; 37
 3f8:	91 e0       	ldi	r25, 0x01	; 1
 3fa:	93 d0       	rcall	.+294    	; 0x522 <QueuePush>
 3fc:	69 91       	ld	r22, Y+
 3fe:	61 11       	cpse	r22, r1
 400:	fa cf       	rjmp	.-12     	; 0x3f6 <uartSendMsg+0x10>
 402:	df 91       	pop	r29
 404:	cf 91       	pop	r28
 406:	08 95       	ret

00000408 <uartSendNr>:
 408:	a0 e1       	ldi	r26, 0x10	; 16
 40a:	b0 e0       	ldi	r27, 0x00	; 0
 40c:	e9 e0       	ldi	r30, 0x09	; 9
 40e:	f2 e0       	ldi	r31, 0x02	; 2
 410:	64 c1       	rjmp	.+712    	; 0x6da <__prologue_saves__+0x1c>
 412:	8e 01       	movw	r16, r28
 414:	0f 5f       	subi	r16, 0xFF	; 255
 416:	1f 4f       	sbci	r17, 0xFF	; 255
 418:	27 e0       	ldi	r18, 0x07	; 7
 41a:	4a e0       	ldi	r20, 0x0A	; 10
 41c:	b0 d0       	rcall	.+352    	; 0x57e <IntegerToAscii>
 41e:	69 81       	ldd	r22, Y+1	; 0x01
 420:	66 23       	and	r22, r22
 422:	71 f0       	breq	.+28     	; 0x440 <uartSendNr+0x38>
 424:	10 e0       	ldi	r17, 0x00	; 0
 426:	85 e2       	ldi	r24, 0x25	; 37
 428:	91 e0       	ldi	r25, 0x01	; 1
 42a:	7b d0       	rcall	.+246    	; 0x522 <QueuePush>
 42c:	1f 5f       	subi	r17, 0xFF	; 255
 42e:	e1 e0       	ldi	r30, 0x01	; 1
 430:	f0 e0       	ldi	r31, 0x00	; 0
 432:	ec 0f       	add	r30, r28
 434:	fd 1f       	adc	r31, r29
 436:	e1 0f       	add	r30, r17
 438:	f1 1d       	adc	r31, r1
 43a:	60 81       	ld	r22, Z
 43c:	61 11       	cpse	r22, r1
 43e:	f3 cf       	rjmp	.-26     	; 0x426 <uartSendNr+0x1e>
 440:	60 96       	adiw	r28, 0x10	; 16
 442:	e4 e0       	ldi	r30, 0x04	; 4
 444:	66 c1       	rjmp	.+716    	; 0x712 <__epilogue_restores__+0x1c>

00000446 <__vector_25>:
 446:	1f 92       	push	r1
 448:	0f 92       	push	r0
 44a:	0f b6       	in	r0, 0x3f	; 63
 44c:	0f 92       	push	r0
 44e:	11 24       	eor	r1, r1
 450:	2f 93       	push	r18
 452:	3f 93       	push	r19
 454:	4f 93       	push	r20
 456:	5f 93       	push	r21
 458:	6f 93       	push	r22
 45a:	7f 93       	push	r23
 45c:	8f 93       	push	r24
 45e:	9f 93       	push	r25
 460:	af 93       	push	r26
 462:	bf 93       	push	r27
 464:	ef 93       	push	r30
 466:	ff 93       	push	r31
 468:	80 91 22 01 	lds	r24, 0x0122	; 0x800122 <__data_end>
 46c:	81 11       	cpse	r24, r1
 46e:	21 c0       	rjmp	.+66     	; 0x4b2 <__vector_25+0x6c>
 470:	61 df       	rcall	.-318    	; 0x334 <uartReceive>
 472:	90 e0       	ldi	r25, 0x00	; 0
 474:	85 36       	cpi	r24, 0x65	; 101
 476:	91 05       	cpc	r25, r1
 478:	2c f4       	brge	.+10     	; 0x484 <__vector_25+0x3e>
 47a:	90 93 b0 01 	sts	0x01B0, r25	; 0x8001b0 <uartPWM1+0x1>
 47e:	80 93 af 01 	sts	0x01AF, r24	; 0x8001af <uartPWM1>
 482:	05 c0       	rjmp	.+10     	; 0x48e <__vector_25+0x48>
 484:	9a 95       	dec	r25
 486:	90 93 b0 01 	sts	0x01B0, r25	; 0x8001b0 <uartPWM1+0x1>
 48a:	80 93 af 01 	sts	0x01AF, r24	; 0x8001af <uartPWM1>
 48e:	84 e0       	ldi	r24, 0x04	; 4
 490:	91 e0       	ldi	r25, 0x01	; 1
 492:	a9 df       	rcall	.-174    	; 0x3e6 <uartSendMsg>
 494:	60 91 af 01 	lds	r22, 0x01AF	; 0x8001af <uartPWM1>
 498:	70 91 b0 01 	lds	r23, 0x01B0	; 0x8001b0 <uartPWM1+0x1>
 49c:	07 2e       	mov	r0, r23
 49e:	00 0c       	add	r0, r0
 4a0:	88 0b       	sbc	r24, r24
 4a2:	99 0b       	sbc	r25, r25
 4a4:	b1 df       	rcall	.-158    	; 0x408 <uartSendNr>
 4a6:	80 91 22 01 	lds	r24, 0x0122	; 0x800122 <__data_end>
 4aa:	8f 5f       	subi	r24, 0xFF	; 255
 4ac:	80 93 22 01 	sts	0x0122, r24	; 0x800122 <__data_end>
 4b0:	26 c0       	rjmp	.+76     	; 0x4fe <__vector_25+0xb8>
 4b2:	40 df       	rcall	.-384    	; 0x334 <uartReceive>
 4b4:	90 e0       	ldi	r25, 0x00	; 0
 4b6:	85 36       	cpi	r24, 0x65	; 101
 4b8:	91 05       	cpc	r25, r1
 4ba:	2c f4       	brge	.+10     	; 0x4c6 <__vector_25+0x80>
 4bc:	90 93 b2 01 	sts	0x01B2, r25	; 0x8001b2 <uartPWM2+0x1>
 4c0:	80 93 b1 01 	sts	0x01B1, r24	; 0x8001b1 <uartPWM2>
 4c4:	05 c0       	rjmp	.+10     	; 0x4d0 <__vector_25+0x8a>
 4c6:	9a 95       	dec	r25
 4c8:	90 93 b2 01 	sts	0x01B2, r25	; 0x8001b2 <uartPWM2+0x1>
 4cc:	80 93 b1 01 	sts	0x01B1, r24	; 0x8001b1 <uartPWM2>
 4d0:	8b e0       	ldi	r24, 0x0B	; 11
 4d2:	91 e0       	ldi	r25, 0x01	; 1
 4d4:	88 df       	rcall	.-240    	; 0x3e6 <uartSendMsg>
 4d6:	60 91 b1 01 	lds	r22, 0x01B1	; 0x8001b1 <uartPWM2>
 4da:	70 91 b2 01 	lds	r23, 0x01B2	; 0x8001b2 <uartPWM2+0x1>
 4de:	07 2e       	mov	r0, r23
 4e0:	00 0c       	add	r0, r0
 4e2:	88 0b       	sbc	r24, r24
 4e4:	99 0b       	sbc	r25, r25
 4e6:	90 df       	rcall	.-224    	; 0x408 <uartSendNr>
 4e8:	10 92 22 01 	sts	0x0122, r1	; 0x800122 <__data_end>
 4ec:	60 91 b1 01 	lds	r22, 0x01B1	; 0x8001b1 <uartPWM2>
 4f0:	70 91 b2 01 	lds	r23, 0x01B2	; 0x8001b2 <uartPWM2+0x1>
 4f4:	80 91 af 01 	lds	r24, 0x01AF	; 0x8001af <uartPWM1>
 4f8:	90 91 b0 01 	lds	r25, 0x01B0	; 0x8001b0 <uartPWM1+0x1>
 4fc:	05 de       	rcall	.-1014   	; 0x108 <SetSpeed>
 4fe:	ff 91       	pop	r31
 500:	ef 91       	pop	r30
 502:	bf 91       	pop	r27
 504:	af 91       	pop	r26
 506:	9f 91       	pop	r25
 508:	8f 91       	pop	r24
 50a:	7f 91       	pop	r23
 50c:	6f 91       	pop	r22
 50e:	5f 91       	pop	r21
 510:	4f 91       	pop	r20
 512:	3f 91       	pop	r19
 514:	2f 91       	pop	r18
 516:	0f 90       	pop	r0
 518:	0f be       	out	0x3f, r0	; 63
 51a:	0f 90       	pop	r0
 51c:	1f 90       	pop	r1
 51e:	18 95       	reti

00000520 <uartReceiveFromESP>:
 520:	08 95       	ret

00000522 <QueuePush>:
 522:	9c 01       	movw	r18, r24
 524:	80 91 8a 01 	lds	r24, 0x018A	; 0x80018a <head>
 528:	91 e0       	ldi	r25, 0x01	; 1
 52a:	98 0f       	add	r25, r24
 52c:	40 91 89 01 	lds	r20, 0x0189	; 0x800189 <tail>
 530:	94 17       	cp	r25, r20
 532:	59 f0       	breq	.+22     	; 0x54a <QueuePush+0x28>
 534:	94 36       	cpi	r25, 0x64	; 100
 536:	09 f4       	brne	.+2      	; 0x53a <QueuePush+0x18>
 538:	90 e0       	ldi	r25, 0x00	; 0
 53a:	f9 01       	movw	r30, r18
 53c:	e8 0f       	add	r30, r24
 53e:	f1 1d       	adc	r31, r1
 540:	60 83       	st	Z, r22
 542:	90 93 8a 01 	sts	0x018A, r25	; 0x80018a <head>
 546:	81 e0       	ldi	r24, 0x01	; 1
 548:	08 95       	ret
 54a:	80 e0       	ldi	r24, 0x00	; 0
 54c:	08 95       	ret

0000054e <QueuePop>:
 54e:	9c 01       	movw	r18, r24
 550:	90 91 89 01 	lds	r25, 0x0189	; 0x800189 <tail>
 554:	81 e0       	ldi	r24, 0x01	; 1
 556:	89 0f       	add	r24, r25
 558:	40 91 8a 01 	lds	r20, 0x018A	; 0x80018a <head>
 55c:	94 17       	cp	r25, r20
 55e:	69 f0       	breq	.+26     	; 0x57a <QueuePop+0x2c>
 560:	84 36       	cpi	r24, 0x64	; 100
 562:	09 f4       	brne	.+2      	; 0x566 <QueuePop+0x18>
 564:	80 e0       	ldi	r24, 0x00	; 0
 566:	f9 01       	movw	r30, r18
 568:	e9 0f       	add	r30, r25
 56a:	f1 1d       	adc	r31, r1
 56c:	90 81       	ld	r25, Z
 56e:	fb 01       	movw	r30, r22
 570:	90 83       	st	Z, r25
 572:	80 93 89 01 	sts	0x0189, r24	; 0x800189 <tail>
 576:	81 e0       	ldi	r24, 0x01	; 1
 578:	08 95       	ret
 57a:	80 e0       	ldi	r24, 0x00	; 0
 57c:	08 95       	ret

0000057e <IntegerToAscii>:
 57e:	a4 e0       	ldi	r26, 0x04	; 4
 580:	b0 e0       	ldi	r27, 0x00	; 0
 582:	e4 ec       	ldi	r30, 0xC4	; 196
 584:	f2 e0       	ldi	r31, 0x02	; 2
 586:	9b c0       	rjmp	.+310    	; 0x6be <__prologue_saves__>
 588:	6b 01       	movw	r12, r22
 58a:	7c 01       	movw	r14, r24
 58c:	24 2e       	mov	r2, r20
 58e:	f8 01       	movw	r30, r16
 590:	e2 0f       	add	r30, r18
 592:	f1 1d       	adc	r31, r1
 594:	10 82       	st	Z, r1
 596:	d7 01       	movw	r26, r14
 598:	c6 01       	movw	r24, r12
 59a:	88 27       	eor	r24, r24
 59c:	b7 fd       	sbrc	r27, 7
 59e:	83 95       	inc	r24
 5a0:	99 27       	eor	r25, r25
 5a2:	aa 27       	eor	r26, r26
 5a4:	bb 27       	eor	r27, r27
 5a6:	89 83       	std	Y+1, r24	; 0x01
 5a8:	22 23       	and	r18, r18
 5aa:	09 f4       	brne	.+2      	; 0x5ae <IntegerToAscii+0x30>
 5ac:	69 c0       	rjmp	.+210    	; 0x680 <IntegerToAscii+0x102>
 5ae:	82 2e       	mov	r8, r18
 5b0:	91 2c       	mov	r9, r1
 5b2:	44 2e       	mov	r4, r20
 5b4:	51 2c       	mov	r5, r1
 5b6:	61 2c       	mov	r6, r1
 5b8:	71 2c       	mov	r7, r1
 5ba:	68 94       	set
 5bc:	33 24       	eor	r3, r3
 5be:	35 f8       	bld	r3, 5
 5c0:	b1 2c       	mov	r11, r1
 5c2:	a2 2e       	mov	r10, r18
 5c4:	c1 14       	cp	r12, r1
 5c6:	d1 04       	cpc	r13, r1
 5c8:	e1 04       	cpc	r14, r1
 5ca:	f1 04       	cpc	r15, r1
 5cc:	51 f4       	brne	.+20     	; 0x5e2 <IntegerToAscii+0x64>
 5ce:	bb 20       	and	r11, r11
 5d0:	51 f0       	breq	.+20     	; 0x5e6 <IntegerToAscii+0x68>
 5d2:	f4 01       	movw	r30, r8
 5d4:	eb 19       	sub	r30, r11
 5d6:	f1 09       	sbc	r31, r1
 5d8:	e0 0f       	add	r30, r16
 5da:	f1 1f       	adc	r31, r17
 5dc:	31 97       	sbiw	r30, 0x01	; 1
 5de:	30 82       	st	Z, r3
 5e0:	30 c0       	rjmp	.+96     	; 0x642 <IntegerToAscii+0xc4>
 5e2:	ff 20       	and	r15, r15
 5e4:	ac f0       	brlt	.+42     	; 0x610 <IntegerToAscii+0x92>
 5e6:	f4 01       	movw	r30, r8
 5e8:	eb 19       	sub	r30, r11
 5ea:	f1 09       	sbc	r31, r1
 5ec:	e0 0f       	add	r30, r16
 5ee:	f1 1f       	adc	r31, r17
 5f0:	31 97       	sbiw	r30, 0x01	; 1
 5f2:	fc 83       	std	Y+4, r31	; 0x04
 5f4:	eb 83       	std	Y+3, r30	; 0x03
 5f6:	c7 01       	movw	r24, r14
 5f8:	b6 01       	movw	r22, r12
 5fa:	a3 01       	movw	r20, r6
 5fc:	92 01       	movw	r18, r4
 5fe:	43 d0       	rcall	.+134    	; 0x686 <__divmodsi4>
 600:	fb 01       	movw	r30, r22
 602:	ee 5e       	subi	r30, 0xEE	; 238
 604:	fe 4f       	sbci	r31, 0xFE	; 254
 606:	80 81       	ld	r24, Z
 608:	eb 81       	ldd	r30, Y+3	; 0x03
 60a:	fc 81       	ldd	r31, Y+4	; 0x04
 60c:	80 83       	st	Z, r24
 60e:	19 c0       	rjmp	.+50     	; 0x642 <IntegerToAscii+0xc4>
 610:	c4 01       	movw	r24, r8
 612:	8b 19       	sub	r24, r11
 614:	91 09       	sbc	r25, r1
 616:	80 0f       	add	r24, r16
 618:	91 1f       	adc	r25, r17
 61a:	01 97       	sbiw	r24, 0x01	; 1
 61c:	9c 83       	std	Y+4, r25	; 0x04
 61e:	8b 83       	std	Y+3, r24	; 0x03
 620:	66 27       	eor	r22, r22
 622:	77 27       	eor	r23, r23
 624:	cb 01       	movw	r24, r22
 626:	6c 19       	sub	r22, r12
 628:	7d 09       	sbc	r23, r13
 62a:	8e 09       	sbc	r24, r14
 62c:	9f 09       	sbc	r25, r15
 62e:	a3 01       	movw	r20, r6
 630:	92 01       	movw	r18, r4
 632:	29 d0       	rcall	.+82     	; 0x686 <__divmodsi4>
 634:	fb 01       	movw	r30, r22
 636:	ee 5e       	subi	r30, 0xEE	; 238
 638:	fe 4f       	sbci	r31, 0xFE	; 254
 63a:	80 81       	ld	r24, Z
 63c:	eb 81       	ldd	r30, Y+3	; 0x03
 63e:	fc 81       	ldd	r31, Y+4	; 0x04
 640:	80 83       	st	Z, r24
 642:	c7 01       	movw	r24, r14
 644:	b6 01       	movw	r22, r12
 646:	a3 01       	movw	r20, r6
 648:	92 01       	movw	r18, r4
 64a:	1d d0       	rcall	.+58     	; 0x686 <__divmodsi4>
 64c:	69 01       	movw	r12, r18
 64e:	7a 01       	movw	r14, r20
 650:	23 2b       	or	r18, r19
 652:	24 2b       	or	r18, r20
 654:	25 2b       	or	r18, r21
 656:	81 f4       	brne	.+32     	; 0x678 <IntegerToAscii+0xfa>
 658:	f9 81       	ldd	r31, Y+1	; 0x01
 65a:	f1 30       	cpi	r31, 0x01	; 1
 65c:	69 f4       	brne	.+26     	; 0x678 <IntegerToAscii+0xfa>
 65e:	8a e0       	ldi	r24, 0x0A	; 10
 660:	28 12       	cpse	r2, r24
 662:	0a c0       	rjmp	.+20     	; 0x678 <IntegerToAscii+0xfa>
 664:	b3 94       	inc	r11
 666:	f4 01       	movw	r30, r8
 668:	eb 19       	sub	r30, r11
 66a:	f1 09       	sbc	r31, r1
 66c:	e0 0f       	add	r30, r16
 66e:	f1 1f       	adc	r31, r17
 670:	31 97       	sbiw	r30, 0x01	; 1
 672:	9d e2       	ldi	r25, 0x2D	; 45
 674:	90 83       	st	Z, r25
 676:	19 82       	std	Y+1, r1	; 0x01
 678:	b3 94       	inc	r11
 67a:	ba 14       	cp	r11, r10
 67c:	08 f4       	brcc	.+2      	; 0x680 <IntegerToAscii+0x102>
 67e:	a2 cf       	rjmp	.-188    	; 0x5c4 <IntegerToAscii+0x46>
 680:	24 96       	adiw	r28, 0x04	; 4
 682:	e2 e1       	ldi	r30, 0x12	; 18
 684:	38 c0       	rjmp	.+112    	; 0x6f6 <__epilogue_restores__>

00000686 <__divmodsi4>:
 686:	05 2e       	mov	r0, r21
 688:	97 fb       	bst	r25, 7
 68a:	16 f4       	brtc	.+4      	; 0x690 <__divmodsi4+0xa>
 68c:	00 94       	com	r0
 68e:	0f d0       	rcall	.+30     	; 0x6ae <__negsi2>
 690:	57 fd       	sbrc	r21, 7
 692:	05 d0       	rcall	.+10     	; 0x69e <__divmodsi4_neg2>
 694:	4b d0       	rcall	.+150    	; 0x72c <__udivmodsi4>
 696:	07 fc       	sbrc	r0, 7
 698:	02 d0       	rcall	.+4      	; 0x69e <__divmodsi4_neg2>
 69a:	46 f4       	brtc	.+16     	; 0x6ac <__divmodsi4_exit>
 69c:	08 c0       	rjmp	.+16     	; 0x6ae <__negsi2>

0000069e <__divmodsi4_neg2>:
 69e:	50 95       	com	r21
 6a0:	40 95       	com	r20
 6a2:	30 95       	com	r19
 6a4:	21 95       	neg	r18
 6a6:	3f 4f       	sbci	r19, 0xFF	; 255
 6a8:	4f 4f       	sbci	r20, 0xFF	; 255
 6aa:	5f 4f       	sbci	r21, 0xFF	; 255

000006ac <__divmodsi4_exit>:
 6ac:	08 95       	ret

000006ae <__negsi2>:
 6ae:	90 95       	com	r25
 6b0:	80 95       	com	r24
 6b2:	70 95       	com	r23
 6b4:	61 95       	neg	r22
 6b6:	7f 4f       	sbci	r23, 0xFF	; 255
 6b8:	8f 4f       	sbci	r24, 0xFF	; 255
 6ba:	9f 4f       	sbci	r25, 0xFF	; 255
 6bc:	08 95       	ret

000006be <__prologue_saves__>:
 6be:	2f 92       	push	r2
 6c0:	3f 92       	push	r3
 6c2:	4f 92       	push	r4
 6c4:	5f 92       	push	r5
 6c6:	6f 92       	push	r6
 6c8:	7f 92       	push	r7
 6ca:	8f 92       	push	r8
 6cc:	9f 92       	push	r9
 6ce:	af 92       	push	r10
 6d0:	bf 92       	push	r11
 6d2:	cf 92       	push	r12
 6d4:	df 92       	push	r13
 6d6:	ef 92       	push	r14
 6d8:	ff 92       	push	r15
 6da:	0f 93       	push	r16
 6dc:	1f 93       	push	r17
 6de:	cf 93       	push	r28
 6e0:	df 93       	push	r29
 6e2:	cd b7       	in	r28, 0x3d	; 61
 6e4:	de b7       	in	r29, 0x3e	; 62
 6e6:	ca 1b       	sub	r28, r26
 6e8:	db 0b       	sbc	r29, r27
 6ea:	0f b6       	in	r0, 0x3f	; 63
 6ec:	f8 94       	cli
 6ee:	de bf       	out	0x3e, r29	; 62
 6f0:	0f be       	out	0x3f, r0	; 63
 6f2:	cd bf       	out	0x3d, r28	; 61
 6f4:	09 94       	ijmp

000006f6 <__epilogue_restores__>:
 6f6:	2a 88       	ldd	r2, Y+18	; 0x12
 6f8:	39 88       	ldd	r3, Y+17	; 0x11
 6fa:	48 88       	ldd	r4, Y+16	; 0x10
 6fc:	5f 84       	ldd	r5, Y+15	; 0x0f
 6fe:	6e 84       	ldd	r6, Y+14	; 0x0e
 700:	7d 84       	ldd	r7, Y+13	; 0x0d
 702:	8c 84       	ldd	r8, Y+12	; 0x0c
 704:	9b 84       	ldd	r9, Y+11	; 0x0b
 706:	aa 84       	ldd	r10, Y+10	; 0x0a
 708:	b9 84       	ldd	r11, Y+9	; 0x09
 70a:	c8 84       	ldd	r12, Y+8	; 0x08
 70c:	df 80       	ldd	r13, Y+7	; 0x07
 70e:	ee 80       	ldd	r14, Y+6	; 0x06
 710:	fd 80       	ldd	r15, Y+5	; 0x05
 712:	0c 81       	ldd	r16, Y+4	; 0x04
 714:	1b 81       	ldd	r17, Y+3	; 0x03
 716:	aa 81       	ldd	r26, Y+2	; 0x02
 718:	b9 81       	ldd	r27, Y+1	; 0x01
 71a:	ce 0f       	add	r28, r30
 71c:	d1 1d       	adc	r29, r1
 71e:	0f b6       	in	r0, 0x3f	; 63
 720:	f8 94       	cli
 722:	de bf       	out	0x3e, r29	; 62
 724:	0f be       	out	0x3f, r0	; 63
 726:	cd bf       	out	0x3d, r28	; 61
 728:	ed 01       	movw	r28, r26
 72a:	08 95       	ret

0000072c <__udivmodsi4>:
 72c:	a1 e2       	ldi	r26, 0x21	; 33
 72e:	1a 2e       	mov	r1, r26
 730:	aa 1b       	sub	r26, r26
 732:	bb 1b       	sub	r27, r27
 734:	fd 01       	movw	r30, r26
 736:	0d c0       	rjmp	.+26     	; 0x752 <__udivmodsi4_ep>

00000738 <__udivmodsi4_loop>:
 738:	aa 1f       	adc	r26, r26
 73a:	bb 1f       	adc	r27, r27
 73c:	ee 1f       	adc	r30, r30
 73e:	ff 1f       	adc	r31, r31
 740:	a2 17       	cp	r26, r18
 742:	b3 07       	cpc	r27, r19
 744:	e4 07       	cpc	r30, r20
 746:	f5 07       	cpc	r31, r21
 748:	20 f0       	brcs	.+8      	; 0x752 <__udivmodsi4_ep>
 74a:	a2 1b       	sub	r26, r18
 74c:	b3 0b       	sbc	r27, r19
 74e:	e4 0b       	sbc	r30, r20
 750:	f5 0b       	sbc	r31, r21

00000752 <__udivmodsi4_ep>:
 752:	66 1f       	adc	r22, r22
 754:	77 1f       	adc	r23, r23
 756:	88 1f       	adc	r24, r24
 758:	99 1f       	adc	r25, r25
 75a:	1a 94       	dec	r1
 75c:	69 f7       	brne	.-38     	; 0x738 <__udivmodsi4_loop>
 75e:	60 95       	com	r22
 760:	70 95       	com	r23
 762:	80 95       	com	r24
 764:	90 95       	com	r25
 766:	9b 01       	movw	r18, r22
 768:	ac 01       	movw	r20, r24
 76a:	bd 01       	movw	r22, r26
 76c:	cf 01       	movw	r24, r30
 76e:	08 95       	ret

00000770 <_exit>:
 770:	f8 94       	cli

00000772 <__stop_program>:
 772:	ff cf       	rjmp	.-2      	; 0x772 <__stop_program>
